(dp1
S'output'
p2
S"<type 'exceptions.Exception'> Validation error, field:matricula <class 'gluon.validators.IS_NOT_EMPTY'>"
p3
sS'layer'
p4
S'/home/linux/web2py/applications/Estagio/controllers/default.py'
p5
sS'code'
p6
S'# -*- coding: utf-8 -*-\n# this file is released under public domain and you can use without limitations\n\n#########################################################################\n## This is a sample controller\n## - index is the default action of any application\n## - user is required for authentication and authorization\n## - download is for downloading files uploaded in the db (does streaming)\n#########################################################################\n\ndef index():\n    """\n    example action using the internationalization operator T and flash\n    rendered by views/default/index.html or views/generic.html\n\n    if you need a simple wiki simply replace the two lines below with:\n    return auth.wiki()\n    """\n    response.flash = T("Hello World")\n    return dict(message=T(\'Welcome to web2py!\'))\n\n\ndef user():\n    """\n    exposes:\n    http://..../[app]/default/user/login\n    http://..../[app]/default/user/logout\n    http://..../[app]/default/user/register\n    http://..../[app]/default/user/profile\n    http://..../[app]/default/user/retrieve_password\n    http://..../[app]/default/user/change_password\n    http://..../[app]/default/user/manage_users (requires membership in\n    http://..../[app]/default/user/bulk_register\n    use @auth.requires_login()\n        @auth.requires_membership(\'group name\')\n        @auth.requires_permission(\'read\',\'table name\',record_id)\n    to decorate functions that need access control\n    """\n    return dict(form=auth())\n\n\n@cache.action()\ndef download():\n    """\n    allows downloading of uploaded files\n    http://..../[app]/default/download/[filename]\n    """\n    return response.download(request, db)\n\n\ndef call():\n    """\n    exposes services. for example:\n    http://..../[app]/default/call/jsonrpc\n    decorate with @services.jsonrpc the functions to expose\n    supports xml, json, xmlrpc, jsonrpc, amfrpc, rss, csv\n    """\n    return service()\n\ndef aluno():\n    form = SQLFORM(Aluno)\n    if form.process().accepted:\n        session.flash = \'Novo aluno cadastrado!\'\n        redirect(url(\'aluno\'))\n    elif form.errors:\n        response.flash = \'Erros encontrados\'\n    else:\n        if not response.flash:\n            response.flash = \'Preencha o form\'    \n    return dict(form=form)\n\ndef empresa():\n    form = SQLFORM(Empresa)\n    if form.process().accepted:\n        session.flash = \'Nova empresa cadastrado!\'\n        redirect(url(\'empresa\'))\n    elif form.errors:\n        response.flash = \'Erros encontrados\'\n    else:\n        if not response.flash:\n            response.flash = \'Preencha o form\'    \n    return dict(form=form)\n\ndef professor():\n    form = SQLFORM(Professor)\n    if form.process().accepted:\n        session.flash = \'Novo professor cadastrado!\'\n        redirect(url(\'professor\'))\n    elif form.errors:\n        response.flash = \'Erros encontrados\'\n    else:\n        if not response.flash:\n            response.flash = \'Preencha o form\'    \n    return dict(form=form)\n\nresponse._vars=response._caller(aluno)\n'
p7
sS'snapshot'
p8
(dp9
S'exception'
p10
(dp11
S'__hash__'
p12
S"<method-wrapper '__hash__' of exceptions.Exception object>"
p13
sS'__setattr__'
p14
S"<method-wrapper '__setattr__' of exceptions.Exception object>"
p15
sS'__reduce_ex__'
p16
S'<built-in method __reduce_ex__ of exceptions.Exception object>'
p17
sS'__getslice__'
p18
S"<method-wrapper '__getslice__' of exceptions.Exception object>"
p19
sS'__getitem__'
p20
S"<method-wrapper '__getitem__' of exceptions.Exception object>"
p21
sS'__setstate__'
p22
S'<built-in method __setstate__ of exceptions.Exception object>'
p23
sS'__reduce__'
p24
S'<built-in method __reduce__ of exceptions.Exception object>'
p25
sS'__str__'
p26
S"<method-wrapper '__str__' of exceptions.Exception object>"
p27
sS'__format__'
p28
S'<built-in method __format__ of exceptions.Exception object>'
p29
sS'__getattribute__'
p30
S"<method-wrapper '__getattribute__' of exceptions.Exception object>"
p31
sS'__class__'
p32
S"<type 'exceptions.Exception'>"
p33
sS'__unicode__'
p34
S'<built-in method __unicode__ of exceptions.Exception object>'
p35
sS'__delattr__'
p36
S"<method-wrapper '__delattr__' of exceptions.Exception object>"
p37
sS'__subclasshook__'
p38
S'<built-in method __subclasshook__ of type object>'
p39
sS'__repr__'
p40
S"<method-wrapper '__repr__' of exceptions.Exception object>"
p41
sS'args'
p42
S'("Validation error, field:matricula <class \'gluon.validators.IS_NOT_EMPTY\'>",)'
p43
sS'__dict__'
p44
S'{}'
p45
sS'__sizeof__'
p46
S'<built-in method __sizeof__ of exceptions.Exception object>'
p47
sS'__doc__'
p48
S"'Common base class for all non-exit exceptions.'"
p49
sS'__init__'
p50
S"<method-wrapper '__init__' of exceptions.Exception object>"
p51
sS'__new__'
p52
S'<built-in method __new__ of type object>'
p53
ssS'evalue'
p54
S"Validation error, field:matricula <class 'gluon.validators.IS_NOT_EMPTY'>"
p55
sS'request'
p56
cgluon.html
XML_unpickle
p57
(S's\xa6`\x00\x00<div><table><tr><td style="font-weight:bold;vertical-align:top;">ajax</td><td style="vertical-align:top;">:</td><td><div>False</div></td></tr><tr><td style="font-weight:bold;vertical-align:top;">application</td><td style="vertical-align:top;">:</td><td><div>Estagio</div></td></tr><tr><td style="font-weight:bold;vertical-align:top;">args</td><td style="vertical-align:top;">:</td><td><div><table></table></div></td></tr><tr><td style="font-weight:bold;vertical-align:top;">cid</td><td style="vertical-align:top;">:</td><td><div>None</div></td></tr><tr><td style="font-weight:bold;vertical-align:top;">client</td><td style="vertical-align:top;">:</td><td><div>127.0.0.1</div></td></tr><tr><td style="font-weight:bold;vertical-align:top;">controller</td><td style="vertical-align:top;">:</td><td><div>default</div></td></tr><tr><td style="font-weight:bold;vertical-align:top;">cookies</td><td style="vertical-align:top;">:</td><td><div><table><tr><td style="font-weight:bold;vertical-align:top;">session_id_admin</td><td style="vertical-align:top;">:</td><td><div>127.0.0.1-00321836-56f5-45ac-986b-97526f4bca27<table><tr><td style="font-weight:bold;vertical-align:top;">comment</td><td style="vertical-align:top;">:</td><td><div></div></td></tr><tr><td style="font-weight:bold;vertical-align:top;">domain</td><td style="vertical-align:top;">:</td><td><div></div></td></tr><tr><td style="font-weight:bold;vertical-align:top;">expires</td><td style="vertical-align:top;">:</td><td><div></div></td></tr><tr><td style="font-weight:bold;vertical-align:top;">httponly</td><td style="vertical-align:top;">:</td><td><div></div></td></tr><tr><td style="font-weight:bold;vertical-align:top;">max-age</td><td style="vertical-align:top;">:</td><td><div></div></td></tr><tr><td style="font-weight:bold;vertical-align:top;">path</td><td style="vertical-align:top;">:</td><td><div></div></td></tr><tr><td style="font-weight:bold;vertical-align:top;">secure</td><td style="vertical-align:top;">:</td><td><div></div></td></tr><tr><td style="font-weight:bold;vertical-align:top;">version</td><td style="vertical-align:top;">:</td><td><div></div></td></tr></table></div></td></tr><tr><td style="font-weight:bold;vertical-align:top;">session_id_estagio</td><td style="vertical-align:top;">:</td><td><div>127.0.0.1-ef7bb15e-a367-46d5-9a5e-6aaa1cb9ac4a<table><tr><td style="font-weight:bold;vertical-align:top;">comment</td><td style="vertical-align:top;">:</td><td><div></div></td></tr><tr><td style="font-weight:bold;vertical-align:top;">domain</td><td style="vertical-align:top;">:</td><td><div></div></td></tr><tr><td style="font-weight:bold;vertical-align:top;">expires</td><td style="vertical-align:top;">:</td><td><div></div></td></tr><tr><td style="font-weight:bold;vertical-align:top;">httponly</td><td style="vertical-align:top;">:</td><td><div></div></td></tr><tr><td style="font-weight:bold;vertical-align:top;">max-age</td><td style="vertical-align:top;">:</td><td><div></div></td></tr><tr><td style="font-weight:bold;vertical-align:top;">path</td><td style="vertical-align:top;">:</td><td><div></div></td></tr><tr><td style="font-weight:bold;vertical-align:top;">secure</td><td style="vertical-align:top;">:</td><td><div></div></td></tr><tr><td style="font-weight:bold;vertical-align:top;">version</td><td style="vertical-align:top;">:</td><td><div></div></td></tr></table></div></td></tr><tr><td style="font-weight:bold;vertical-align:top;">session_id_welcome</td><td style="vertical-align:top;">:</td><td><div>127.0.0.1-dc53d9a9-be90-4427-8525-e23443e2d78d<table><tr><td style="font-weight:bold;vertical-align:top;">comment</td><td style="vertical-align:top;">:</td><td><div></div></td></tr><tr><td style="font-weight:bold;vertical-align:top;">domain</td><td style="vertical-align:top;">:</td><td><div></div></td></tr><tr><td style="font-weight:bold;vertical-align:top;">expires</td><td style="vertical-align:top;">:</td><td><div></div></td></tr><tr><td style="font-weight:bold;vertical-align:top;">httponly</td><td style="vertical-align:top;">:</td><td><div></div></td></tr><tr><td style="font-weight:bold;vertical-align:top;">max-age</td><td style="vertical-align:top;">:</td><td><div></div></td></tr><tr><td style="font-weight:bold;vertical-align:top;">path</td><td style="vertical-align:top;">:</td><td><div></div></td></tr><tr><td style="font-weight:bold;vertical-align:top;">secure</td><td style="vertical-align:top;">:</td><td><div></div></td></tr><tr><td style="font-weight:bold;vertical-align:top;">version</td><td style="vertical-align:top;">:</td><td><div></div></td></tr></table></div></td></tr></table></div></td></tr><tr><td style="font-weight:bold;vertical-align:top;">env</td><td style="vertical-align:top;">:</td><td><div><table><tr><td style="font-weight:bold;vertical-align:top;">CONTENT_LENGTH</td><td style="vertical-align:top;">:</td><td><div>1172</div></td></tr><tr><td style="font-weight:bold;vertical-align:top;">CONTENT_TYPE</td><td style="vertical-align:top;">:</td><td><div>multipart/form-data; boundary=---------------------------95885316518105755421723999661</div></td></tr><tr><td style="font-weight:bold;vertical-align:top;">HTTP_ACCEPT</td><td style="vertical-align:top;">:</td><td><div>text/html,application/xhtml+xml,application/xml;q=0.9,*/*;q=0.8</div></td></tr><tr><td style="font-weight:bold;vertical-align:top;">HTTP_ACCEPT_ENCODING</td><td style="vertical-align:top;">:</td><td><div>gzip, deflate</div></td></tr><tr><td style="font-weight:bold;vertical-align:top;">HTTP_ACCEPT_LANGUAGE</td><td style="vertical-align:top;">:</td><td><div>en-US,en;q=0.5</div></td></tr><tr><td style="font-weight:bold;vertical-align:top;">HTTP_CONNECTION</td><td style="vertical-align:top;">:</td><td><div>keep-alive</div></td></tr><tr><td style="font-weight:bold;vertical-align:top;">HTTP_CONTENT_LENGTH</td><td style="vertical-align:top;">:</td><td><div>1172</div></td></tr><tr><td style="font-weight:bold;vertical-align:top;">HTTP_CONTENT_TYPE</td><td style="vertical-align:top;">:</td><td><div>multipart/form-data; boundary=---------------------------95885316518105755421723999661</div></td></tr><tr><td style="font-weight:bold;vertical-align:top;">HTTP_COOKIE</td><td style="vertical-align:top;">:</td><td><div>session_id_welcome=127.0.0.1-dc53d9a9-be90-4427-8525-e23443e2d78d; session_id_admin=127.0.0.1-00321836-56f5-45ac-986b-97526f4bca27; session_id_estagio=127.0.0.1-ef7bb15e-a367-46d5-9a5e-6aaa1cb9ac4a</div></td></tr><tr><td style="font-weight:bold;vertical-align:top;">HTTP_HOST</td><td style="vertical-align:top;">:</td><td><div>127.0.0.1</div></td></tr><tr><td style="font-weight:bold;vertical-align:top;">HTTP_REFERER</td><td style="vertical-align:top;">:</td><td><div>http://127.0.0.1/Estagio/default/aluno</div></td></tr><tr><td style="font-weight:bold;vertical-align:top;">HTTP_UPGRADE_INSECURE_REQUESTS</td><td style="vertical-align:top;">:</td><td><div>1</div></td></tr><tr><td style="font-weight:bold;vertical-align:top;">HTTP_USER_AGENT</td><td style="vertical-align:top;">:</td><td><div>Mozilla/5.0 (X11; Ubuntu; Linux i686; rv:51.0) Gecko/20100101 Firefox/51.0</div></td></tr><tr><td style="font-weight:bold;vertical-align:top;">PATH_INFO</td><td style="vertical-align:top;">:</td><td><div>/Estagio/default/aluno</div></td></tr><tr><td style="font-weight:bold;vertical-align:top;">QUERY_STRING</td><td style="vertical-align:top;">:</td><td><div></div></td></tr><tr><td style="font-weight:bold;vertical-align:top;">REMOTE_ADDR</td><td style="vertical-align:top;">:</td><td><div>127.0.0.1</div></td></tr><tr><td style="font-weight:bold;vertical-align:top;">REMOTE_PORT</td><td style="vertical-align:top;">:</td><td><div>52838</div></td></tr><tr><td style="font-weight:bold;vertical-align:top;">REQUEST_METHOD</td><td style="vertical-align:top;">:</td><td><div>POST</div></td></tr><tr><td style="font-weight:bold;vertical-align:top;">SCRIPT_NAME</td><td style="vertical-align:top;">:</td><td><div></div></td></tr><tr><td style="font-weight:bold;vertical-align:top;">SERVER_NAME</td><td style="vertical-align:top;">:</td><td><div>VirtualBox</div></td></tr><tr><td style="font-weight:bold;vertical-align:top;">SERVER_PORT</td><td style="vertical-align:top;">:</td><td><div>80</div></td></tr><tr><td style="font-weight:bold;vertical-align:top;">SERVER_PROTOCOL</td><td style="vertical-align:top;">:</td><td><div>HTTP/1.1</div></td></tr><tr><td style="font-weight:bold;vertical-align:top;">SERVER_SOFTWARE</td><td style="vertical-align:top;">:</td><td><div>Rocket 1.2.6</div></td></tr><tr><td style="font-weight:bold;vertical-align:top;">app_folders</td><td style="vertical-align:top;">:</td><td><div>set([&#x27;/home/linux/web2py/applications/admin/&#x27;, &#x27;/home/linux/web2py/applications/Estagio/&#x27;, &#x27;/home/linux/web2py/applications/welcome/&#x27;])</div></td></tr><tr><td style="font-weight:bold;vertical-align:top;">applications_parent</td><td style="vertical-align:top;">:</td><td><div>/home/linux/web2py</div></td></tr><tr><td style="font-weight:bold;vertical-align:top;">cmd_args</td><td style="vertical-align:top;">:</td><td><div><table></table></div></td></tr><tr><td style="font-weight:bold;vertical-align:top;">cmd_options</td><td style="vertical-align:top;">:</td><td><div>&lt;Values at 0xb5f5f96c: {&#x27;verbose&#x27;: False, &#x27;ip&#x27;: &#x27;127.0.0.1&#x27;, &#x27;debuglevel&#x27;: 30, &#x27;with_scheduler&#x27;: False, &#x27;ips&#x27;: [&#x27;127.0.1.1&#x27;], &#x27;shutdown_timeout&#x27;: 5, &#x27;taskbar&#x27;: False, &#x27;with_coverage&#x27;: False, &#x27;scheduler_groups&#x27;: None, &#x27;port&#x27;: 8000, &#x27;maxthreads&#x27;: None, &#x27;softcron&#x27;: False, &#x27;server_name&#x27;: &#x27;VirtualBox&#x27;, &#x27;bpython&#x27;: False, &#x27;nogui&#x27;: False, &#x27;pid_filename&#x27;: &#x27;httpserver.pid&#x27;, &#x27;print_errors&#x27;: False, &#x27;extcron&#x27;: False, &#x27;runcron&#x27;: False, &#x27;run_system_tests&#x27;: False, &#x27;test&#x27;: None, &#x27;folder&#x27;: &#x27;/home/linux/web2py&#x27;, &#x27;config&#x27;: &#x27;&#x27;, &#x27;minthreads&#x27;: None, &#x27;shell&#x27;: None, &#x27;run&#x27;: &#x27;&#x27;, &#x27;log_filename&#x27;: &#x27;httpserver.log&#x27;, &#x27;profiler_dir&#x27;: None, &#x27;args&#x27;: [&#x27;&#x27;], &#x27;socket_timeout&#x27;: 5, &#x27;ssl_ca_certificate&#x27;: None, &#x27;scheduler&#x27;: None, &#x27;interfaces&#x27;: None, &#x27;ssl_private_key&#x27;: &#x27;&#x27;, &#x27;gae&#x27;: None, &#x27;password&#x27;: &#x27;&lt;ask&gt;&#x27;, &#x27;request_queue_size&#x27;: 5, &#x27;ssl_certificate&#x27;: &#x27;&#x27;, &#x27;cronjob&#x27;: False, &#x27;numthreads&#x27;: None, &#x27;quiet&#x27;: False, &#x27;import_models&#x27;: False, &#x27;timeout&#x27;: 10, &#x27;plain&#x27;: False, &#x27;nobanner&#x27;: False}&gt;</div></td></tr><tr><td style="font-weight:bold;vertical-align:top;">content_length</td><td style="vertical-align:top;">:</td><td><div>1172</div></td></tr><tr><td style="font-weight:bold;vertical-align:top;">content_type</td><td style="vertical-align:top;">:</td><td><div>multipart/form-data; boundary=---------------------------95885316518105755421723999661</div></td></tr><tr><td style="font-weight:bold;vertical-align:top;">db_sessions</td><td style="vertical-align:top;">:</td><td><div>set([])</div></td></tr><tr><td style="font-weight:bold;vertical-align:top;">debugging</td><td style="vertical-align:top;">:</td><td><div>False</div></td></tr><tr><td style="font-weight:bold;vertical-align:top;">gluon_parent</td><td style="vertical-align:top;">:</td><td><div>/usr/share/web2py</div></td></tr><tr><td style="font-weight:bold;vertical-align:top;">http_accept</td><td style="vertical-align:top;">:</td><td><div>text/html,application/xhtml+xml,application/xml;q=0.9,*/*;q=0.8</div></td></tr><tr><td style="font-weight:bold;vertical-align:top;">http_accept_encoding</td><td style="vertical-align:top;">:</td><td><div>gzip, deflate</div></td></tr><tr><td style="font-weight:bold;vertical-align:top;">http_accept_language</td><td style="vertical-align:top;">:</td><td><div>en-US,en;q=0.5</div></td></tr><tr><td style="font-weight:bold;vertical-align:top;">http_connection</td><td style="vertical-align:top;">:</td><td><div>keep-alive</div></td></tr><tr><td style="font-weight:bold;vertical-align:top;">http_content_length</td><td style="vertical-align:top;">:</td><td><div>1172</div></td></tr><tr><td style="font-weight:bold;vertical-align:top;">http_content_type</td><td style="vertical-align:top;">:</td><td><div>multipart/form-data; boundary=---------------------------95885316518105755421723999661</div></td></tr><tr><td style="font-weight:bold;vertical-align:top;">http_cookie</td><td style="vertical-align:top;">:</td><td><div>session_id_welcome=127.0.0.1-dc53d9a9-be90-4427-8525-e23443e2d78d; session_id_admin=127.0.0.1-00321836-56f5-45ac-986b-97526f4bca27; session_id_estagio=127.0.0.1-ef7bb15e-a367-46d5-9a5e-6aaa1cb9ac4a</div></td></tr><tr><td style="font-weight:bold;vertical-align:top;">http_host</td><td style="vertical-align:top;">:</td><td><div>127.0.0.1</div></td></tr><tr><td style="font-weight:bold;vertical-align:top;">http_referer</td><td style="vertical-align:top;">:</td><td><div>http://127.0.0.1/Estagio/default/aluno</div></td></tr><tr><td style="font-weight:bold;vertical-align:top;">http_upgrade_insecure_requests</td><td style="vertical-align:top;">:</td><td><div>1</div></td></tr><tr><td style="font-weight:bold;vertical-align:top;">http_user_agent</td><td style="vertical-align:top;">:</td><td><div>Mozilla/5.0 (X11; Ubuntu; Linux i686; rv:51.0) Gecko/20100101 Firefox/51.0</div></td></tr><tr><td style="font-weight:bold;vertical-align:top;">is_jython</td><td style="vertical-align:top;">:</td><td><div>False</div></td></tr><tr><td style="font-weight:bold;vertical-align:top;">is_pypy</td><td style="vertical-align:top;">:</td><td><div>False</div></td></tr><tr><td style="font-weight:bold;vertical-align:top;">is_source</td><td style="vertical-align:top;">:</td><td><div>True</div></td></tr><tr><td style="font-weight:bold;vertical-align:top;">local_hosts</td><td style="vertical-align:top;">:</td><td><div><table><tr><td><div>::1</div></td></tr><tr><td><div>127.0.1.1</div></td></tr><tr><td><div>VirtualBox</div></td></tr><tr><td><div>::ffff:127.0.0.1</div></td></tr><tr><td><div>127.0.0.1</div></td></tr></table></div></td></tr><tr><td style="font-weight:bold;vertical-align:top;">path_info</td><td style="vertical-align:top;">:</td><td><div>/Estagio/default/aluno</div></td></tr><tr><td style="font-weight:bold;vertical-align:top;">query_string</td><td style="vertical-align:top;">:</td><td><div></div></td></tr><tr><td style="font-weight:bold;vertical-align:top;">remote_addr</td><td style="vertical-align:top;">:</td><td><div>127.0.0.1</div></td></tr><tr><td style="font-weight:bold;vertical-align:top;">remote_port</td><td style="vertical-align:top;">:</td><td><div>52838</div></td></tr><tr><td style="font-weight:bold;vertical-align:top;">request_method</td><td style="vertical-align:top;">:</td><td><div>POST</div></td></tr><tr><td style="font-weight:bold;vertical-align:top;">request_uri</td><td style="vertical-align:top;">:</td><td><div>/Estagio/default/aluno</div></td></tr><tr><td style="font-weight:bold;vertical-align:top;">script_name</td><td style="vertical-align:top;">:</td><td><div></div></td></tr><tr><td style="font-weight:bold;vertical-align:top;">server_name</td><td style="vertical-align:top;">:</td><td><div>VirtualBox</div></td></tr><tr><td style="font-weight:bold;vertical-align:top;">server_port</td><td style="vertical-align:top;">:</td><td><div>80</div></td></tr><tr><td style="font-weight:bold;vertical-align:top;">server_protocol</td><td style="vertical-align:top;">:</td><td><div>HTTP/1.1</div></td></tr><tr><td style="font-weight:bold;vertical-align:top;">server_software</td><td style="vertical-align:top;">:</td><td><div>Rocket 1.2.6</div></td></tr><tr><td style="font-weight:bold;vertical-align:top;">web2py_path</td><td style="vertical-align:top;">:</td><td><div>/home/linux/web2py</div></td></tr><tr><td style="font-weight:bold;vertical-align:top;">web2py_version</td><td style="vertical-align:top;">:</td><td><div>2.12.3-stable+timestamp.2015.08.19.00.18.03</div></td></tr><tr><td style="font-weight:bold;vertical-align:top;">wsgi.errors</td><td style="vertical-align:top;">:</td><td><div>&lt;open file &#x27;&lt;stderr&gt;&#x27;, mode &#x27;w&#x27; at 0xb748a0d0&gt;</div></td></tr><tr><td style="font-weight:bold;vertical-align:top;">wsgi.file_wrapper</td><td style="vertical-align:top;">:</td><td><div>&lt;class wsgiref.util.FileWrapper at 0xb5f9f3bc&gt;</div></td></tr><tr><td style="font-weight:bold;vertical-align:top;">wsgi.input</td><td style="vertical-align:top;">:</td><td><div>&lt;socket._fileobject object at 0xa24cf5ac&gt;</div></td></tr><tr><td style="font-weight:bold;vertical-align:top;">wsgi.multiprocess</td><td style="vertical-align:top;">:</td><td><div>False</div></td></tr><tr><td style="font-weight:bold;vertical-align:top;">wsgi.multithread</td><td style="vertical-align:top;">:</td><td><div>True</div></td></tr><tr><td style="font-weight:bold;vertical-align:top;">wsgi.run_once</td><td style="vertical-align:top;">:</td><td><div>False</div></td></tr><tr><td style="font-weight:bold;vertical-align:top;">wsgi.url_scheme</td><td style="vertical-align:top;">:</td><td><div>http</div></td></tr><tr><td style="font-weight:bold;vertical-align:top;">wsgi.version</td><td style="vertical-align:top;">:</td><td><div><table><tr><td><div>1</div></td></tr><tr><td><div>0</div></td></tr></table></div></td></tr><tr><td style="font-weight:bold;vertical-align:top;">wsgi_errors</td><td style="vertical-align:top;">:</td><td><div>&lt;open file &#x27;&lt;stderr&gt;&#x27;, mode &#x27;w&#x27; at 0xb748a0d0&gt;</div></td></tr><tr><td style="font-weight:bold;vertical-align:top;">wsgi_file_wrapper</td><td style="vertical-align:top;">:</td><td><div>&lt;class wsgiref.util.FileWrapper at 0xb5f9f3bc&gt;</div></td></tr><tr><td style="font-weight:bold;vertical-align:top;">wsgi_input</td><td style="vertical-align:top;">:</td><td><div>&lt;socket._fileobject object at 0xa24cf5ac&gt;</div></td></tr><tr><td style="font-weight:bold;vertical-align:top;">wsgi_multiprocess</td><td style="vertical-align:top;">:</td><td><div>False</div></td></tr><tr><td style="font-weight:bold;vertical-align:top;">wsgi_multithread</td><td style="vertical-align:top;">:</td><td><div>True</div></td></tr><tr><td style="font-weight:bold;vertical-align:top;">wsgi_run_once</td><td style="vertical-align:top;">:</td><td><div>False</div></td></tr><tr><td style="font-weight:bold;vertical-align:top;">wsgi_url_scheme</td><td style="vertical-align:top;">:</td><td><div>http</div></td></tr><tr><td style="font-weight:bold;vertical-align:top;">wsgi_version</td><td style="vertical-align:top;">:</td><td><div><table><tr><td><div>1</div></td></tr><tr><td><div>0</div></td></tr></table></div></td></tr></table></div></td></tr><tr><td style="font-weight:bold;vertical-align:top;">extension</td><td style="vertical-align:top;">:</td><td><div>html</div></td></tr><tr><td style="font-weight:bold;vertical-align:top;">folder</td><td style="vertical-align:top;">:</td><td><div>/home/linux/web2py/applications/Estagio/</div></td></tr><tr><td style="font-weight:bold;vertical-align:top;">function</td><td style="vertical-align:top;">:</td><td><div>aluno</div></td></tr><tr><td style="font-weight:bold;vertical-align:top;">global_settings</td><td style="vertical-align:top;">:</td><td><div><table><tr><td style="font-weight:bold;vertical-align:top;">app_folders</td><td style="vertical-align:top;">:</td><td><div>set([&#x27;/home/linux/web2py/applications/admin/&#x27;, &#x27;/home/linux/web2py/applications/Estagio/&#x27;, &#x27;/home/linux/web2py/applications/welcome/&#x27;])</div></td></tr><tr><td style="font-weight:bold;vertical-align:top;">applications_parent</td><td style="vertical-align:top;">:</td><td><div>/home/linux/web2py</div></td></tr><tr><td style="font-weight:bold;vertical-align:top;">cmd_args</td><td style="vertical-align:top;">:</td><td><div><table></table></div></td></tr><tr><td style="font-weight:bold;vertical-align:top;">cmd_options</td><td style="vertical-align:top;">:</td><td><div>&lt;Values at 0xb5f5f96c: {&#x27;verbose&#x27;: False, &#x27;ip&#x27;: &#x27;127.0.0.1&#x27;, &#x27;debuglevel&#x27;: 30, &#x27;with_scheduler&#x27;: False, &#x27;ips&#x27;: [&#x27;127.0.1.1&#x27;], &#x27;shutdown_timeout&#x27;: 5, &#x27;taskbar&#x27;: False, &#x27;with_coverage&#x27;: False, &#x27;scheduler_groups&#x27;: None, &#x27;port&#x27;: 8000, &#x27;maxthreads&#x27;: None, &#x27;softcron&#x27;: False, &#x27;server_name&#x27;: &#x27;VirtualBox&#x27;, &#x27;bpython&#x27;: False, &#x27;nogui&#x27;: False, &#x27;pid_filename&#x27;: &#x27;httpserver.pid&#x27;, &#x27;print_errors&#x27;: False, &#x27;extcron&#x27;: False, &#x27;runcron&#x27;: False, &#x27;run_system_tests&#x27;: False, &#x27;test&#x27;: None, &#x27;folder&#x27;: &#x27;/home/linux/web2py&#x27;, &#x27;config&#x27;: &#x27;&#x27;, &#x27;minthreads&#x27;: None, &#x27;shell&#x27;: None, &#x27;run&#x27;: &#x27;&#x27;, &#x27;log_filename&#x27;: &#x27;httpserver.log&#x27;, &#x27;profiler_dir&#x27;: None, &#x27;args&#x27;: [&#x27;&#x27;], &#x27;socket_timeout&#x27;: 5, &#x27;ssl_ca_certificate&#x27;: None, &#x27;scheduler&#x27;: None, &#x27;interfaces&#x27;: None, &#x27;ssl_private_key&#x27;: &#x27;&#x27;, &#x27;gae&#x27;: None, &#x27;password&#x27;: &#x27;&lt;ask&gt;&#x27;, &#x27;request_queue_size&#x27;: 5, &#x27;ssl_certificate&#x27;: &#x27;&#x27;, &#x27;cronjob&#x27;: False, &#x27;numthreads&#x27;: None, &#x27;quiet&#x27;: False, &#x27;import_models&#x27;: False, &#x27;timeout&#x27;: 10, &#x27;plain&#x27;: False, &#x27;nobanner&#x27;: False}&gt;</div></td></tr><tr><td style="font-weight:bold;vertical-align:top;">db_sessions</td><td style="vertical-align:top;">:</td><td><div>set([])</div></td></tr><tr><td style="font-weight:bold;vertical-align:top;">debugging</td><td style="vertical-align:top;">:</td><td><div>False</div></td></tr><tr><td style="font-weight:bold;vertical-align:top;">gluon_parent</td><td style="vertical-align:top;">:</td><td><div>/usr/share/web2py</div></td></tr><tr><td style="font-weight:bold;vertical-align:top;">is_jython</td><td style="vertical-align:top;">:</td><td><div>False</div></td></tr><tr><td style="font-weight:bold;vertical-align:top;">is_pypy</td><td style="vertical-align:top;">:</td><td><div>False</div></td></tr><tr><td style="font-weight:bold;vertical-align:top;">is_source</td><td style="vertical-align:top;">:</td><td><div>True</div></td></tr><tr><td style="font-weight:bold;vertical-align:top;">local_hosts</td><td style="vertical-align:top;">:</td><td><div><table><tr><td><div>::1</div></td></tr><tr><td><div>127.0.1.1</div></td></tr><tr><td><div>VirtualBox</div></td></tr><tr><td><div>::ffff:127.0.0.1</div></td></tr><tr><td><div>127.0.0.1</div></td></tr></table></div></td></tr><tr><td style="font-weight:bold;vertical-align:top;">web2py_version</td><td style="vertical-align:top;">:</td><td><div>2.12.3-stable+timestamp.2015.08.19.00.18.03</div></td></tr></table></div></td></tr><tr><td style="font-weight:bold;vertical-align:top;">is_https</td><td style="vertical-align:top;">:</td><td><div>False</div></td></tr><tr><td style="font-weight:bold;vertical-align:top;">is_local</td><td style="vertical-align:top;">:</td><td><div>True</div></td></tr><tr><td style="font-weight:bold;vertical-align:top;">is_restful</td><td style="vertical-align:top;">:</td><td><div>False</div></td></tr><tr><td style="font-weight:bold;vertical-align:top;">is_sheduler</td><td style="vertical-align:top;">:</td><td><div>None</div></td></tr><tr><td style="font-weight:bold;vertical-align:top;">is_shell</td><td style="vertical-align:top;">:</td><td><div>None</div></td></tr><tr><td style="font-weight:bold;vertical-align:top;">now</td><td style="vertical-align:top;">:</td><td><div>datetime.datetime(2017, 1, 31, 20, 51, 3, 351570)</div></td></tr><tr><td style="font-weight:bold;vertical-align:top;">raw_args</td><td style="vertical-align:top;">:</td><td><div></div></td></tr><tr><td style="font-weight:bold;vertical-align:top;">raw_extension</td><td style="vertical-align:top;">:</td><td><div>None</div></td></tr><tr><td style="font-weight:bold;vertical-align:top;">url</td><td style="vertical-align:top;">:</td><td><div>/Estagio/default/aluno</div></td></tr><tr><td style="font-weight:bold;vertical-align:top;">utcnow</td><td style="vertical-align:top;">:</td><td><div>datetime.datetime(2017, 1, 31, 22, 51, 3, 351582)</div></td></tr><tr><td style="font-weight:bold;vertical-align:top;">wsgi</td><td style="vertical-align:top;">:</td><td><div>&lt;gluon.main.LazyWSGI object at 0xa228a36c&gt;</div></td></tr></table></div>'
tRp58
sS'frames'
p59
(lp60
(dp61
S'file'
p62
S'/usr/lib/python2.7/dist-packages/gluon/restricted.py'
p63
sS'dump'
p64
(dp65
S'environment'
p66
S"{'A': <class 'gluon.html.A'>, 'ANY_OF': <class 'gluon.validators.ANY_OF'>, 'ASSIGNJS': <function ASSIGNJS>, 'Aluno': <Table aluno (id,nome,matricula,curso,periodo,telefone,email,documento)>, 'AppConfig': <function AppConfig>, 'Auth': <class 'gluon.tools.Auth'>, 'B': <class 'gluon.html.B'>, 'BEAUTIFY': <class 'gluon.html.BEAUTIFY'>, 'BODY': <class 'gluon.html.BODY'>, 'BR': <class 'gluon.html.BR'>, ...}"
p67
sS'ccode'
p68
S'<code object <module> at 0xa20ee4a0, file "/home...cations/Estagio/controllers/default.py", line 11>'
p69
ssS'lnum'
p70
I227
sS'lines'
p71
(dp72
I224
S'            ccode = code'
p73
sI225
S'        else:'
p74
sI226
S'            ccode = compile2(code, layer)'
p75
sI227
S'        exec ccode in environment'
p76
sI228
S'    except HTTP:'
p77
sI229
S'        raise'
p78
sI230
S'    except RestrictedError:'
p79
sI231
S'        # do not encapsulate (obfuscate) the original RestrictedError'
p80
sI222
S'    try:'
p81
sI223
S'        if isinstance(code, types.CodeType):'
p82
ssS'call'
p83
S"(code='# -*- coding: utf-8 -*-\\n# this file is released ...rm=form)\\n\\nresponse._vars=response._caller(aluno)\\n', environment={'A': <class 'gluon.html.A'>, 'ANY_OF': <class 'gluon.validators.ANY_OF'>, 'ASSIGNJS': <function ASSIGNJS>, 'Aluno': <Table aluno (id,nome,matricula,curso,periodo,telefone,email,documento)>, 'AppConfig': <function AppConfig>, 'Auth': <class 'gluon.tools.Auth'>, 'B': <class 'gluon.html.B'>, 'BEAUTIFY': <class 'gluon.html.BEAUTIFY'>, 'BODY': <class 'gluon.html.BODY'>, 'BR': <class 'gluon.html.BR'>, ...}, layer='/home/linux/web2py/applications/Estagio/controllers/default.py')"
p84
sS'func'
p85
S'restricted'
p86
sa(dp87
g62
S'/home/linux/web2py/applications/Estagio/controllers/default.py'
p88
sg64
(dp89
sg70
I96
sg71
(dp90
I85
S'    form = SQLFORM(Professor)'
p91
sI86
S'    if form.process().accepted:'
p92
sI87
S"        session.flash = 'Novo professor cadastrado!'"
p93
sI88
S"        redirect(url('professor'))"
p94
sI89
S'    elif form.errors:'
p95
sI90
S"        response.flash = 'Erros encontrados'"
p96
sI91
S'    else:'
p97
sI92
S'        if not response.flash:'
p98
sI93
S"            response.flash = 'Preencha o form'"
p99
sI94
S'    return dict(form=form)'
p100
ssg83
S'()'
p101
sg85
S'<module>'
p102
sa(dp103
g62
S'/usr/lib/python2.7/dist-packages/gluon/globals.py'
p104
sg64
(dp105
S'self'
p106
S'undefined'
p107
sS'f'
S'<function aluno>'
p108
ssg70
I412
sg71
(dp109
I416
S"        self.generic_patterns = ['*']"
p110
sI407
S"        self.flash = ''            # used by the default view layout"
p111
sI408
S'        self.meta = Storage()      # used by web2py_ajax.html'
p112
sI409
S'        self.menu = []             # used by the default view layout'
p113
sI410
S'        self.files = []            # used by web2py_ajax.html'
p114
sI411
S'        self._vars = None'
p115
sI412
S'        self._caller = lambda f: f()'
p116
sI413
S'        self._view_environment = None'
p117
sI414
S'        self._custom_commit = None'
p118
sI415
S'        self._custom_rollback = None'
p119
ssg83
S'(f=<function aluno>)'
p120
sg85
S'<lambda>'
p121
sa(dp122
g62
S'/home/linux/web2py/applications/Estagio/controllers/default.py'
p123
sg64
(dp124
S'form.process'
p125
S'<bound method SQLFORM.process of <gluon.sqlhtml.SQLFORM object>>'
p126
sS').accepted'
p127
g107
sS'form'
p128
S'<gluon.sqlhtml.SQLFORM object>'
p129
ssg70
I62
sg71
(dp130
I64
S"        redirect(url('aluno'))"
p131
sI65
S'    elif form.errors:'
p132
sI66
S"        response.flash = 'Erros encontrados'"
p133
sI57
S'    """'
p134
sI58
S'    return service()'
p135
sI59
S''
sI60
S'def aluno():'
p136
sI61
S'    form = SQLFORM(Aluno)'
p137
sI62
S'    if form.process().accepted:'
p138
sI63
S"        session.flash = 'Novo aluno cadastrado!'"
p139
ssg83
S'()'
p140
sg85
S'aluno'
p141
sa(dp142
g62
S'/usr/lib/python2.7/dist-packages/gluon/html.py'
p143
sg64
(dp144
S'self'
p145
S'<gluon.sqlhtml.SQLFORM object>'
p146
sS'self.validate'
p147
S'<bound method SQLFORM.validate of <gluon.sqlhtml.SQLFORM object>>'
p148
sS'kwargs'
p149
S"{'dbio': True}"
p150
ssg70
I2301
sg71
(dp151
I2304
S'    REDIRECT_JS = "window.location=\'%s\';return false"'
p152
sI2305
S''
sI2296
S''
sI2297
S''
sI2298
S'        """'
p153
sI2299
S"        kwargs['dbio'] = kwargs.get('dbio', True)"
p154
sI2300
S'                                    # necessary for SQLHTML forms'
p155
sI2301
S'        self.validate(**kwargs)'
p156
sI2302
S'        return self'
p157
sI2303
S''
ssg83
S"(self=<gluon.sqlhtml.SQLFORM object>, **kwargs={'dbio': True})"
p158
sg85
S'process'
p159
sa(dp160
g62
S'/usr/lib/python2.7/dist-packages/gluon/html.py'
p161
sg64
(dp162
S'self'
p163
S'<gluon.sqlhtml.SQLFORM object>'
p164
sS'self.accepts'
p165
S'<bound method SQLFORM.accepts of <gluon.sqlhtml.SQLFORM object>>'
p166
sS'kwargs'
p167
S"{'dbio': True, 'request_vars': <Storage {'nome': '', 'periodo': '', 'email': ''...', '_formname': 'aluno/create', 'documento': ''}>, 'session': <Storage {'_formkey[aluno/create]': ['79418dc2-2...b02e8', 'b90846b7-a8c7-4cfe-8681-4a44eed9e777']}>}"
p168
ssg70
I2238
sg71
(dp169
I2240
S'                if next:'
p170
sI2241
S'                    current.session.flash = message_onsuccess'
p171
sI2242
S'                else:'
p172
sI2233
S"        for key in ('message_onsuccess', 'message_onfailure', 'onsuccess',"
p173
sI2234
S"                    'onfailure', 'next', 'message_onchange', 'onchange'):"
p174
sI2235
S'            if key in kwargs:'
p175
sI2236
S'                del kwargs[key]'
p176
sI2237
S''
sI2238
S'        if self.accepts(**kwargs):'
p177
sI2239
S"            if onsuccess == 'flash':"
p178
ssg83
S"(self=<gluon.sqlhtml.SQLFORM object>, **kwargs={'dbio': True, 'request_vars': <Storage {'nome': '', 'periodo': '', 'email': ''...', '_formname': 'aluno/create', 'documento': ''}>, 'session': <Storage {'_formkey[aluno/create]': ['79418dc2-2...b02e8', 'b90846b7-a8c7-4cfe-8681-4a44eed9e777']}>})"
p179
sg85
S'validate'
p180
sa(dp181
g62
S'/usr/lib/python2.7/dist-packages/gluon/sqlhtml.py'
p182
sg64
(dp183
S'kwargs'
p184
g45
ssg70
I1495
sg71
(dp185
I1490
S'            session,'
p186
sI1491
S'            formname,'
p187
sI1492
S'            keepvalues,'
p188
sI1493
S'            onvalidation,'
p189
sI1494
S'            hideerror=hideerror,'
p190
sI1495
S'            **kwargs'
p191
sI1496
S'        )'
p192
sI1497
S''
sI1498
S'        self.deleted = \\'
p193
sI1499
S'            request_vars.get(self.FIELDNAME_REQUEST_DELETE, False)'
p194
ssg83
S"(self=<gluon.sqlhtml.SQLFORM object>, request_vars=<Storage {'nome': '', 'periodo': '', 'email': ''...', '_formname': 'aluno/create', 'documento': ''}>, session=<Storage {'_formkey[aluno/create]': ['79418dc2-2...b02e8', 'b90846b7-a8c7-4cfe-8681-4a44eed9e777']}>, formname='aluno/create', keepvalues=False, onvalidation=None, dbio=True, hideerror=False, detect_record_change=False, **kwargs={})"
p195
sg85
S'accepts'
p196
sa(dp197
g62
S'/usr/lib/python2.7/dist-packages/gluon/html.py'
p198
sg64
(dp199
S'status'
p200
S'True'
p201
sS'self'
p202
S'<gluon.sqlhtml.SQLFORM object>'
p203
sS'self._traverse'
p204
S'<bound method SQLFORM._traverse of <gluon.sqlhtml.SQLFORM object>>'
p205
sS'hideerror'
p206
S'False'
p207
ssg70
I2119
sg71
(dp208
I2114
S'        if status and session:'
p209
sI2115
S'            # check if editing a record that has been modified by the server'
p210
sI2116
S"            if hasattr(self, 'record_hash') and self.record_hash != formkey.split(':')[0]:"
p211
sI2117
S'                status = False'
p212
sI2118
S'                self.record_changed = changed = True'
p213
sI2119
S'        status = self._traverse(status, hideerror)'
p214
sI2120
S'        status = self.assert_status(status, request_vars)'
p215
sI2121
S'        if onvalidation:'
p216
sI2122
S'            if isinstance(onvalidation, dict):'
p217
sI2123
S"                onsuccess = onvalidation.get('onsuccess', None)"
p218
ssg83
S"(self=<gluon.sqlhtml.SQLFORM object>, request_vars=<Storage {'nome': '', 'periodo': '', '_formname'...c65-b243f4f62b96', 'email': '', 'documento': ''}>, session=<Storage {'_formkey[aluno/create]': ['79418dc2-2...b02e8', 'b90846b7-a8c7-4cfe-8681-4a44eed9e777']}>, formname='aluno/create', keepvalues=False, onvalidation=None, hideerror=False, **kwargs={})"
p219
sg85
g196
sa(dp220
g62
S'/usr/lib/python2.7/dist-packages/gluon/html.py'
p221
sg64
(dp222
S'status'
p223
g201
sS'newstatus'
p224
g201
sS'c'
S'<gluon.html.CAT object>'
p225
sS'hideerror'
p226
g207
sS'c._traverse'
p227
S'<bound method CAT._traverse of <gluon.html.CAT object>>'
p228
ssg70
I885
sg71
(dp229
I880
S'                c.latest = self.latest'
p230
sI881
S'                c.session = self.session'
p231
sI882
S'                c.formname = self.formname'
p232
sI883
S"                if not c.attributes.get('hideerror'):"
p233
sI884
S"                    c['hideerror'] = hideerror or self.attributes.get('hideerror')"
p234
sI885
S'                newstatus = c._traverse(status, hideerror) and newstatus'
p235
sI886
S''
sI887
S'        # for input, textarea, select, option'
p236
sI888
S"        # deal with 'value' and 'validation'"
p237
sI889
S''
ssg83
S'(self=<gluon.sqlhtml.SQLFORM object>, status=True, hideerror=False)'
p238
sg85
S'_traverse'
p239
sa(dp240
g62
S'/usr/lib/python2.7/dist-packages/gluon/html.py'
p241
sg64
(dp242
S'status'
p243
g201
sS'newstatus'
p244
g207
sS'c'
S'<gluon.html.DIV object>'
p245
sS'hideerror'
p246
g207
sS'c._traverse'
p247
S'<bound method DIV._traverse of <gluon.html.DIV object>>'
p248
ssg70
I885
sg71
(dp249
I880
S'                c.latest = self.latest'
p250
sI881
S'                c.session = self.session'
p251
sI882
S'                c.formname = self.formname'
p252
sI883
S"                if not c.attributes.get('hideerror'):"
p253
sI884
S"                    c['hideerror'] = hideerror or self.attributes.get('hideerror')"
p254
sI885
S'                newstatus = c._traverse(status, hideerror) and newstatus'
p255
sI886
S''
sI887
S'        # for input, textarea, select, option'
p256
sI888
S"        # deal with 'value' and 'validation'"
p257
sI889
S''
ssg83
S'(self=<gluon.html.CAT object>, status=True, hideerror=False)'
p258
sg85
g239
sa(dp259
g62
S'/usr/lib/python2.7/dist-packages/gluon/html.py'
p260
sg64
(dp261
S'status'
p262
g201
sS'newstatus'
p263
g201
sS'c'
S'<gluon.html.DIV object>'
p264
sS'hideerror'
p265
g207
sS'c._traverse'
p266
S'<bound method DIV._traverse of <gluon.html.DIV object>>'
p267
ssg70
I885
sg71
(dp268
I880
S'                c.latest = self.latest'
p269
sI881
S'                c.session = self.session'
p270
sI882
S'                c.formname = self.formname'
p271
sI883
S"                if not c.attributes.get('hideerror'):"
p272
sI884
S"                    c['hideerror'] = hideerror or self.attributes.get('hideerror')"
p273
sI885
S'                newstatus = c._traverse(status, hideerror) and newstatus'
p274
sI886
S''
sI887
S'        # for input, textarea, select, option'
p275
sI888
S"        # deal with 'value' and 'validation'"
p276
sI889
S''
ssg83
S'(self=<gluon.html.DIV object>, status=True, hideerror=False)'
p277
sg85
g239
sa(dp278
g62
S'/usr/lib/python2.7/dist-packages/gluon/html.py'
p279
sg64
(dp280
S'status'
p281
g201
sS'newstatus'
p282
g201
sS'c'
S'<gluon.html.INPUT object>'
p283
sS'hideerror'
p284
g207
sS'c._traverse'
p285
S'<bound method INPUT._traverse of <gluon.html.INPUT object>>'
p286
ssg70
I885
sg71
(dp287
I880
S'                c.latest = self.latest'
p288
sI881
S'                c.session = self.session'
p289
sI882
S'                c.formname = self.formname'
p290
sI883
S"                if not c.attributes.get('hideerror'):"
p291
sI884
S"                    c['hideerror'] = hideerror or self.attributes.get('hideerror')"
p292
sI885
S'                newstatus = c._traverse(status, hideerror) and newstatus'
p293
sI886
S''
sI887
S'        # for input, textarea, select, option'
p294
sI888
S"        # deal with 'value' and 'validation'"
p295
sI889
S''
ssg83
S'(self=<gluon.html.DIV object>, status=True, hideerror=False)'
p296
sg85
g239
sa(dp297
g62
S'/usr/lib/python2.7/dist-packages/gluon/html.py'
p298
sg64
(dp299
S'newstatus'
p300
g201
sS'self'
p301
S'<gluon.html.INPUT object>'
p302
sS'self._validate'
p303
S'<bound method INPUT._validate of <gluon.html.INPUT object>>'
p304
ssg70
I892
sg71
(dp305
I896
S'            self._postprocessing()'
p306
sI887
S'        # for input, textarea, select, option'
p307
sI888
S"        # deal with 'value' and 'validation'"
p308
sI889
S''
sI890
S"        name = self['_name']"
p309
sI891
S'        if newstatus:'
p310
sI892
S'            newstatus = self._validate()'
p311
sI893
S'            self._postprocessing()'
p312
sI894
S"        elif 'old_value' in self.attributes:"
p313
sI895
S"            self['value'] = self['old_value']"
p314
ssg83
S'(self=<gluon.html.INPUT object>, status=True, hideerror=False)'
p315
sg85
g239
sa(dp316
g62
S'/usr/lib/python2.7/dist-packages/gluon/html.py'
p317
sg64
(dp318
S'builtinException'
p319
S"<type 'exceptions.Exception'>"
p320
sS'msg'
p321
S'"Validation error, field:matricula <class \'gluon.validators.IS_NOT_EMPTY\'>"'
p322
ssg70
I1860
sg71
(dp323
I1856
S'                try:'
p324
sI1857
S'                    (value, errors) = validator(value)'
p325
sI1858
S'                except:'
p326
sI1859
S'                    msg = "Validation error, field:%s %s" % (name,validator)'
p327
sI1860
S'                    raise Exception(msg)'
p328
sI1861
S'                if not errors is None:'
p329
sI1862
S'                    self.vars[name] = value'
p330
sI1863
S'                    self.errors[name] = errors'
p331
sI1864
S'                    break'
p332
sI1855
S'            for k, validator in enumerate(requires):'
p333
ssg83
S'(self=<gluon.html.INPUT object>)'
p334
sg85
S'_validate'
p335
sasS'pyver'
p336
S'Python 2.7.12: /usr/bin/python (prefix: /usr)'
p337
sS'session'
p338
g57
(S's\x1a\x00\x00\x00<div><table></table></div>'
tRp339
sS'etype'
p340
S"<type 'exceptions.Exception'>"
p341
sS'date'
p342
S'Tue Jan 31 20:51:03 2017'
p343
sS'response'
p344
g57
(S'sw?\x00\x00<div><table><tr><td style="font-weight:bold;vertical-align:top;">body</td><td style="vertical-align:top;">:</td><td><div>&lt;cStringIO.StringO object at 0xa1c1dea0&gt;</div></td></tr><tr><td style="font-weight:bold;vertical-align:top;">cookies</td><td style="vertical-align:top;">:</td><td><div><table><tr><td style="font-weight:bold;vertical-align:top;">session_id_estagio</td><td style="vertical-align:top;">:</td><td><div>127.0.0.1-ef7bb15e-a367-46d5-9a5e-6aaa1cb9ac4a<table><tr><td style="font-weight:bold;vertical-align:top;">comment</td><td style="vertical-align:top;">:</td><td><div></div></td></tr><tr><td style="font-weight:bold;vertical-align:top;">domain</td><td style="vertical-align:top;">:</td><td><div></div></td></tr><tr><td style="font-weight:bold;vertical-align:top;">expires</td><td style="vertical-align:top;">:</td><td><div></div></td></tr><tr><td style="font-weight:bold;vertical-align:top;">httponly</td><td style="vertical-align:top;">:</td><td><div></div></td></tr><tr><td style="font-weight:bold;vertical-align:top;">max-age</td><td style="vertical-align:top;">:</td><td><div></div></td></tr><tr><td style="font-weight:bold;vertical-align:top;">path</td><td style="vertical-align:top;">:</td><td><div>/</div></td></tr><tr><td style="font-weight:bold;vertical-align:top;">secure</td><td style="vertical-align:top;">:</td><td><div></div></td></tr><tr><td style="font-weight:bold;vertical-align:top;">version</td><td style="vertical-align:top;">:</td><td><div></div></td></tr></table></div></td></tr></table></div></td></tr><tr><td style="font-weight:bold;vertical-align:top;">delimiters</td><td style="vertical-align:top;">:</td><td><div><table><tr><td><div>{{</div></td></tr><tr><td><div>}}</div></td></tr></table></div></td></tr><tr><td style="font-weight:bold;vertical-align:top;">files</td><td style="vertical-align:top;">:</td><td><div><table></table></div></td></tr><tr><td style="font-weight:bold;vertical-align:top;">flash</td><td style="vertical-align:top;">:</td><td><div></div></td></tr><tr><td style="font-weight:bold;vertical-align:top;">form_label_separator</td><td style="vertical-align:top;">:</td><td><div></div></td></tr><tr><td style="font-weight:bold;vertical-align:top;">formstyle</td><td style="vertical-align:top;">:</td><td><div>bootstrap3_inline</div></td></tr><tr><td style="font-weight:bold;vertical-align:top;">generic_patterns</td><td style="vertical-align:top;">:</td><td><div><table><tr><td><div>*</div></td></tr></table></div></td></tr><tr><td style="font-weight:bold;vertical-align:top;">google_analytics_id</td><td style="vertical-align:top;">:</td><td><div>None</div></td></tr><tr><td style="font-weight:bold;vertical-align:top;">headers</td><td style="vertical-align:top;">:</td><td><div><table><tr><td style="font-weight:bold;vertical-align:top;">X-Powered-By</td><td style="vertical-align:top;">:</td><td><div>web2py</div></td></tr></table></div></td></tr><tr><td style="font-weight:bold;vertical-align:top;">logo</td><td style="vertical-align:top;">:</td><td><div><a class="navbar-brand" href="http://www.web2py.com/" id="web2py-logo"><b>web<span>2</span>py</b>&trade;&nbsp;</a></div></td></tr><tr><td style="font-weight:bold;vertical-align:top;">menu</td><td style="vertical-align:top;">:</td><td><div><table><tr><td><div><table><tr><td><div>Home</div></td></tr><tr><td><div>False</div></td></tr><tr><td><div>/Estagio/default/index</div></td></tr><tr><td><div><table></table></div></td></tr></table></div></td></tr><tr><td><div><table><tr><td><div>My Sites</div></td></tr><tr><td><div>False</div></td></tr><tr><td><div>/admin/default/site</div></td></tr></table></div></td></tr><tr><td><div><table><tr><td><div>This App</div></td></tr><tr><td><div>False</div></td></tr><tr><td><div>#</div></td></tr><tr><td><div><table><tr><td><div><table><tr><td><div>Design</div></td></tr><tr><td><div>False</div></td></tr><tr><td><div>/admin/default/design/Estagio</div></td></tr></table></div></td></tr><tr><td><div><li class="divider"></li></div></td></tr><tr><td><div><table><tr><td><div>Controller</div></td></tr><tr><td><div>False</div></td></tr><tr><td><div>/admin/default/edit/Estagio/controllers/default.py</div></td></tr></table></div></td></tr><tr><td><div><table><tr><td><div>View</div></td></tr><tr><td><div>False</div></td></tr><tr><td><div>/admin/default/edit/Estagio/views/default/aluno.html</div></td></tr></table></div></td></tr><tr><td><div><table><tr><td><div>DB Model</div></td></tr><tr><td><div>False</div></td></tr><tr><td><div>/admin/default/edit/Estagio/models/db.py</div></td></tr></table></div></td></tr><tr><td><div><table><tr><td><div>Menu Model</div></td></tr><tr><td><div>False</div></td></tr><tr><td><div>/admin/default/edit/Estagio/models/menu.py</div></td></tr></table></div></td></tr><tr><td><div><table><tr><td><div>Config.ini</div></td></tr><tr><td><div>False</div></td></tr><tr><td><div>/admin/default/edit/Estagio/private/appconfig.ini</div></td></tr></table></div></td></tr><tr><td><div><table><tr><td><div>Layout</div></td></tr><tr><td><div>False</div></td></tr><tr><td><div>/admin/default/edit/Estagio/views/layout.html</div></td></tr></table></div></td></tr><tr><td><div><table><tr><td><div>Stylesheet</div></td></tr><tr><td><div>False</div></td></tr><tr><td><div>/admin/default/edit/Estagio/static/css/web2py-bootstrap3.css</div></td></tr></table></div></td></tr><tr><td><div><table><tr><td><div>Database</div></td></tr><tr><td><div>False</div></td></tr><tr><td><div>/Estagio/appadmin/index</div></td></tr></table></div></td></tr><tr><td><div><table><tr><td><div>Errors</div></td></tr><tr><td><div>False</div></td></tr><tr><td><div>/admin/default/errors/Estagio</div></td></tr></table></div></td></tr><tr><td><div><table><tr><td><div>About</div></td></tr><tr><td><div>False</div></td></tr><tr><td><div>/admin/default/about/Estagio</div></td></tr></table></div></td></tr></table></div></td></tr></table></div></td></tr><tr><td><div><table><tr><td><div>web2py.com</div></td></tr><tr><td><div>False</div></td></tr><tr><td><div>#</div></td></tr><tr><td><div><table><tr><td><div><table><tr><td><div>Download</div></td></tr><tr><td><div>False</div></td></tr><tr><td><div>http://www.web2py.com/examples/default/download</div></td></tr></table></div></td></tr><tr><td><div><table><tr><td><div>Support</div></td></tr><tr><td><div>False</div></td></tr><tr><td><div>http://www.web2py.com/examples/default/support</div></td></tr></table></div></td></tr><tr><td><div><table><tr><td><div>Demo</div></td></tr><tr><td><div>False</div></td></tr><tr><td><div>http://web2py.com/demo_admin</div></td></tr></table></div></td></tr><tr><td><div><table><tr><td><div>Quick Examples</div></td></tr><tr><td><div>False</div></td></tr><tr><td><div>http://web2py.com/examples/default/examples</div></td></tr></table></div></td></tr><tr><td><div><table><tr><td><div>FAQ</div></td></tr><tr><td><div>False</div></td></tr><tr><td><div>http://web2py.com/AlterEgo</div></td></tr></table></div></td></tr><tr><td><div><table><tr><td><div>Videos</div></td></tr><tr><td><div>False</div></td></tr><tr><td><div>http://www.web2py.com/examples/default/videos/</div></td></tr></table></div></td></tr><tr><td><div><table><tr><td><div>Free Applications</div></td></tr><tr><td><div>False</div></td></tr><tr><td><div>http://web2py.com/appliances</div></td></tr></table></div></td></tr><tr><td><div><table><tr><td><div>Plugins</div></td></tr><tr><td><div>False</div></td></tr><tr><td><div>http://web2py.com/plugins</div></td></tr></table></div></td></tr><tr><td><div><table><tr><td><div>Recipes</div></td></tr><tr><td><div>False</div></td></tr><tr><td><div>http://web2pyslices.com/</div></td></tr></table></div></td></tr></table></div></td></tr></table></div></td></tr><tr><td><div><table><tr><td><div>Documentation</div></td></tr><tr><td><div>False</div></td></tr><tr><td><div>#</div></td></tr><tr><td><div><table><tr><td><div><table><tr><td><div>Online book</div></td></tr><tr><td><div>False</div></td></tr><tr><td><div>http://www.web2py.com/book</div></td></tr></table></div></td></tr><tr><td><div><li class="divider"></li></div></td></tr><tr><td><div><table><tr><td><div>Preface</div></td></tr><tr><td><div>False</div></td></tr><tr><td><div>http://www.web2py.com/book/default/chapter/00</div></td></tr></table></div></td></tr><tr><td><div><table><tr><td><div>Introduction</div></td></tr><tr><td><div>False</div></td></tr><tr><td><div>http://www.web2py.com/book/default/chapter/01</div></td></tr></table></div></td></tr><tr><td><div><table><tr><td><div>Python</div></td></tr><tr><td><div>False</div></td></tr><tr><td><div>http://www.web2py.com/book/default/chapter/02</div></td></tr></table></div></td></tr><tr><td><div><table><tr><td><div>Overview</div></td></tr><tr><td><div>False</div></td></tr><tr><td><div>http://www.web2py.com/book/default/chapter/03</div></td></tr></table></div></td></tr><tr><td><div><table><tr><td><div>The Core</div></td></tr><tr><td><div>False</div></td></tr><tr><td><div>http://www.web2py.com/book/default/chapter/04</div></td></tr></table></div></td></tr><tr><td><div><table><tr><td><div>The Views</div></td></tr><tr><td><div>False</div></td></tr><tr><td><div>http://www.web2py.com/book/default/chapter/05</div></td></tr></table></div></td></tr><tr><td><div><table><tr><td><div>Database</div></td></tr><tr><td><div>False</div></td></tr><tr><td><div>http://www.web2py.com/book/default/chapter/06</div></td></tr></table></div></td></tr><tr><td><div><table><tr><td><div>Forms and Validators</div></td></tr><tr><td><div>False</div></td></tr><tr><td><div>http://www.web2py.com/book/default/chapter/07</div></td></tr></table></div></td></tr><tr><td><div><table><tr><td><div>Email and SMS</div></td></tr><tr><td><div>False</div></td></tr><tr><td><div>http://www.web2py.com/book/default/chapter/08</div></td></tr></table></div></td></tr><tr><td><div><table><tr><td><div>Access Control</div></td></tr><tr><td><div>False</div></td></tr><tr><td><div>http://www.web2py.com/book/default/chapter/09</div></td></tr></table></div></td></tr><tr><td><div><table><tr><td><div>Services</div></td></tr><tr><td><div>False</div></td></tr><tr><td><div>http://www.web2py.com/book/default/chapter/10</div></td></tr></table></div></td></tr><tr><td><div><table><tr><td><div>Ajax Recipes</div></td></tr><tr><td><div>False</div></td></tr><tr><td><div>http://www.web2py.com/book/default/chapter/11</div></td></tr></table></div></td></tr><tr><td><div><table><tr><td><div>Components and Plugins</div></td></tr><tr><td><div>False</div></td></tr><tr><td><div>http://www.web2py.com/book/default/chapter/12</div></td></tr></table></div></td></tr><tr><td><div><table><tr><td><div>Deployment Recipes</div></td></tr><tr><td><div>False</div></td></tr><tr><td><div>http://www.web2py.com/book/default/chapter/13</div></td></tr></table></div></td></tr><tr><td><div><table><tr><td><div>Other Recipes</div></td></tr><tr><td><div>False</div></td></tr><tr><td><div>http://www.web2py.com/book/default/chapter/14</div></td></tr></table></div></td></tr><tr><td><div><table><tr><td><div>Helping web2py</div></td></tr><tr><td><div>False</div></td></tr><tr><td><div>http://www.web2py.com/book/default/chapter/15</div></td></tr></table></div></td></tr><tr><td><div><table><tr><td><div>Buy web2py\'s book</div></td></tr><tr><td><div>False</div></td></tr><tr><td><div>http://stores.lulu.com/web2py</div></td></tr></table></div></td></tr></table></div></td></tr></table></div></td></tr><tr><td><div><table><tr><td><div>Community</div></td></tr><tr><td><div>False</div></td></tr><tr><td><div>None</div></td></tr><tr><td><div><table><tr><td><div><table><tr><td><div>Groups</div></td></tr><tr><td><div>False</div></td></tr><tr><td><div>http://www.web2py.com/examples/default/usergroups</div></td></tr></table></div></td></tr><tr><td><div><table><tr><td><div>Twitter</div></td></tr><tr><td><div>False</div></td></tr><tr><td><div>http://twitter.com/web2py</div></td></tr></table></div></td></tr><tr><td><div><table><tr><td><div>Live Chat</div></td></tr><tr><td><div>False</div></td></tr><tr><td><div>http://webchat.freenode.net/?channels=web2py</div></td></tr></table></div></td></tr></table></div></td></tr></table></div></td></tr></table></div></td></tr><tr><td style="font-weight:bold;vertical-align:top;">meta</td><td style="vertical-align:top;">:</td><td><div><table><tr><td style="font-weight:bold;vertical-align:top;">author</td><td style="vertical-align:top;">:</td><td><div>Your Name &lt;you@example.com&gt;</div></td></tr><tr><td style="font-weight:bold;vertical-align:top;">description</td><td style="vertical-align:top;">:</td><td><div>a cool new app</div></td></tr><tr><td style="font-weight:bold;vertical-align:top;">generator</td><td style="vertical-align:top;">:</td><td><div>Web2py Web Framework</div></td></tr><tr><td style="font-weight:bold;vertical-align:top;">keywords</td><td style="vertical-align:top;">:</td><td><div>web2py, python, framework</div></td></tr></table></div></td></tr><tr><td style="font-weight:bold;vertical-align:top;">models_to_run</td><td style="vertical-align:top;">:</td><td><div><table><tr><td><div>^\\w+\\.py$</div></td></tr><tr><td><div>^default/\\w+\\.py$</div></td></tr><tr><td><div>^default/aluno/\\w+\\.py$</div></td></tr></table></div></td></tr><tr><td style="font-weight:bold;vertical-align:top;">postprocessing</td><td style="vertical-align:top;">:</td><td><div><table></table></div></td></tr><tr><td style="font-weight:bold;vertical-align:top;">session_client</td><td style="vertical-align:top;">:</td><td><div>127.0.0.1</div></td></tr><tr><td style="font-weight:bold;vertical-align:top;">session_cookie_compression_level</td><td style="vertical-align:top;">:</td><td><div>None</div></td></tr><tr><td style="font-weight:bold;vertical-align:top;">session_cookie_expires</td><td style="vertical-align:top;">:</td><td><div>None</div></td></tr><tr><td style="font-weight:bold;vertical-align:top;">session_cookie_key</td><td style="vertical-align:top;">:</td><td><div>None</div></td></tr><tr><td style="font-weight:bold;vertical-align:top;">session_data_name</td><td style="vertical-align:top;">:</td><td><div>session_data_estagio</div></td></tr><tr><td style="font-weight:bold;vertical-align:top;">session_file</td><td style="vertical-align:top;">:</td><td><div>&lt;open file &#x27;/home/linux/web2py/applications/Estagio/sessions/111/1ee/127.0.0.1-ef7bb15e-a367-46d5-9a5e-6aaa1cb9ac4a&#x27;, mode &#x27;rb+&#x27; at 0xa2258d88&gt;</div></td></tr><tr><td style="font-weight:bold;vertical-align:top;">session_filename</td><td style="vertical-align:top;">:</td><td><div>/home/linux/web2py/applications/Estagio/sessions/127.0.0.1-ef7bb15e-a367-46d5-9a5e-6aaa1cb9ac4a</div></td></tr><tr><td style="font-weight:bold;vertical-align:top;">session_hash</td><td style="vertical-align:top;">:</td><td><div>077ba3ad7e10aacf360398ee52bb02e8</div></td></tr><tr><td style="font-weight:bold;vertical-align:top;">session_id</td><td style="vertical-align:top;">:</td><td><div>127.0.0.1-ef7bb15e-a367-46d5-9a5e-6aaa1cb9ac4a</div></td></tr><tr><td style="font-weight:bold;vertical-align:top;">session_id_name</td><td style="vertical-align:top;">:</td><td><div>session_id_estagio</div></td></tr><tr><td style="font-weight:bold;vertical-align:top;">session_locked</td><td style="vertical-align:top;">:</td><td><div>True</div></td></tr><tr><td style="font-weight:bold;vertical-align:top;">session_masterapp</td><td style="vertical-align:top;">:</td><td><div>Estagio</div></td></tr><tr><td style="font-weight:bold;vertical-align:top;">session_new</td><td style="vertical-align:top;">:</td><td><div>False</div></td></tr><tr><td style="font-weight:bold;vertical-align:top;">session_storage_type</td><td style="vertical-align:top;">:</td><td><div>file</div></td></tr><tr><td style="font-weight:bold;vertical-align:top;">status</td><td style="vertical-align:top;">:</td><td><div>200</div></td></tr><tr><td style="font-weight:bold;vertical-align:top;">subtitle</td><td style="vertical-align:top;">:</td><td><div></div></td></tr><tr><td style="font-weight:bold;vertical-align:top;">title</td><td style="vertical-align:top;">:</td><td><div>Estagio</div></td></tr><tr><td style="font-weight:bold;vertical-align:top;">view</td><td style="vertical-align:top;">:</td><td><div>default/aluno.html</div></td></tr></table></div>'
tRp345
sS'locals'
p346
(dp347
S'name'
p348
S"'matricula'"
p349
sS'k'
S'0'
sS'value'
p350
S"''"
p351
sS'validator'
p352
S"<class 'gluon.validators.IS_NOT_EMPTY'>"
p353
sS'msg'
p354
S'"Validation error, field:matricula <class \'gluon.validators.IS_NOT_EMPTY\'>"'
p355
sS'request_vars_get'
p356
S'<built-in method get of Storage object>'
p357
sS'requires'
p358
S"[<class 'gluon.validators.IS_NOT_EMPTY'>, <gluon.validators.IS_NOT_IN_DB object>]"
p359
sS'self'
p360
S'<gluon.html.INPUT object>'
p361
sssS'traceback'
p362
S'Traceback (most recent call last):\n  File "/usr/lib/python2.7/dist-packages/gluon/restricted.py", line 227, in restricted\n    exec ccode in environment\n  File "/home/linux/web2py/applications/Estagio/controllers/default.py", line 96, in <module>\n  File "/usr/lib/python2.7/dist-packages/gluon/globals.py", line 412, in <lambda>\n    self._caller = lambda f: f()\n  File "/home/linux/web2py/applications/Estagio/controllers/default.py", line 62, in aluno\n    if form.process().accepted:\n  File "/usr/lib/python2.7/dist-packages/gluon/html.py", line 2301, in process\n    self.validate(**kwargs)\n  File "/usr/lib/python2.7/dist-packages/gluon/html.py", line 2238, in validate\n    if self.accepts(**kwargs):\n  File "/usr/lib/python2.7/dist-packages/gluon/sqlhtml.py", line 1495, in accepts\n    **kwargs\n  File "/usr/lib/python2.7/dist-packages/gluon/html.py", line 2119, in accepts\n    status = self._traverse(status, hideerror)\n  File "/usr/lib/python2.7/dist-packages/gluon/html.py", line 885, in _traverse\n    newstatus = c._traverse(status, hideerror) and newstatus\n  File "/usr/lib/python2.7/dist-packages/gluon/html.py", line 885, in _traverse\n    newstatus = c._traverse(status, hideerror) and newstatus\n  File "/usr/lib/python2.7/dist-packages/gluon/html.py", line 885, in _traverse\n    newstatus = c._traverse(status, hideerror) and newstatus\n  File "/usr/lib/python2.7/dist-packages/gluon/html.py", line 885, in _traverse\n    newstatus = c._traverse(status, hideerror) and newstatus\n  File "/usr/lib/python2.7/dist-packages/gluon/html.py", line 892, in _traverse\n    newstatus = self._validate()\n  File "/usr/lib/python2.7/dist-packages/gluon/html.py", line 1860, in _validate\n    raise Exception(msg)\nException: Validation error, field:matricula <class \'gluon.validators.IS_NOT_EMPTY\'>\n'
p363
s.